; Function Attrs: mustprogress nofree norecurse nosync nounwind willreturn memory(argmem: read) uwtable
define internal noundef i32 @_ZNK7rocksdb12_GLOBAL__N_116MemTableInserter16WriteAfterCommitEv(ptr nocapture noundef nonnull readonly align 16 dereferenceable(336) %this) unnamed_addr #10 align 2 {
entry:
  %write_after_commit_ = getelementptr inbounds i8, ptr %this, i64 177
  %0 = load i8, ptr %write_after_commit_, align 1
  %1 = and i8 %0, 1
  %tobool.not = icmp eq i8 %1, 0
  %cond = select i1 %tobool.not, i32 1, i32 2
  ret i32 %cond
}